ccollections
defaultdict
p0
(c__builtin__
dict
p1
tp2
Rp3
S'LOSAng'
p4
(dp5
S'host_name'
p6
S'h_LOSAng'
p7
sS'next_hop'
p8
(dp9
S'10.0.0.11'
p10
I5
sS'10.0.0.10'
p11
I5
sS'10.0.0.12'
p12
I8
sS'10.0.0.9'
p13
I5
sS'10.0.0.8'
p14
I8
sS'10.0.0.5'
p15
I5
sS'10.0.0.4'
p16
I5
sS'10.0.0.7'
p17
I5
sS'10.0.0.6'
p18
I5
sS'10.0.0.3'
p19
I8
sS'10.0.0.2'
p20
I8
ssS'link'
p21
(lp22
S'SNVAng'
p23
aS'HSTNng'
p24
asS'host_ip'
p25
S'10.0.0.1'
p26
sS'dpid'
p27
I1
ssS'ATLAng'
p28
(dp29
g6
S'h_ATLAng'
p30
sg8
(dp31
g10
I9
sg11
I9
sg12
I12
sg13
I9
sg14
I8
sg15
I9
sg16
I9
sg17
I9
sg18
I3
sg26
I8
sg19
I3
ssg21
(lp32
S'WASHng'
p33
aS'HSTNng'
p34
aS'ATLA-M5'
p35
aS'IPLSng'
p36
asg25
g20
sg27
I2
ssS'STTLng'
p37
(dp38
g6
S'h_STTLng'
p39
sg8
(dp40
g10
I10
sg11
I10
sg12
I10
sg13
I10
sg14
I5
sg15
I5
sg17
I10
sg18
I10
sg26
I5
sg19
I10
sg20
I10
ssg21
(lp41
S'DNVRng'
p42
aS'SNVAng'
p43
asg25
g16
sg27
I4
ssS'WASHng'
p44
(dp45
g6
S'h_WASHng'
p46
sg8
(dp47
g10
I6
sg11
I6
sg12
I2
sg13
I6
sg14
I2
sg15
I6
sg16
I6
sg17
I6
sg18
I6
sg26
I2
sg20
I2
ssg21
(lp48
S'ATLAng'
p49
aS'NYCMng'
p50
asg25
g19
sg27
I3
ssS'SNVAng'
p51
(dp52
g6
S'h_SNVAng'
p53
sg8
(dp54
g10
I10
sg11
I10
sg12
I10
sg13
I10
sg14
I1
sg16
I4
sg17
I10
sg18
I10
sg26
I1
sg19
I10
sg20
I10
ssg21
(lp55
S'LOSAng'
p56
aS'DNVRng'
p57
aS'STTLng'
p58
asg25
g15
sg27
I5
ssS'NYCMng'
p59
(dp60
g6
S'h_NYCMng'
p61
sg8
(dp62
g10
I11
sg11
I11
sg12
I3
sg13
I11
sg14
I3
sg15
I11
sg16
I11
sg17
I11
sg26
I11
sg19
I3
sg20
I3
ssg21
(lp63
S'WASHng'
p64
aS'CHINng'
p65
asg25
g18
sg27
I6
ssS'KSCYng'
p66
(dp67
g6
S'h_KSCYng'
p68
sg8
(dp69
g10
I9
sg11
I10
sg12
I9
sg13
I9
sg14
I8
sg15
I10
sg16
I10
sg18
I9
sg26
I10
sg19
I9
sg20
I9
ssg21
(lp70
S'DNVRng'
p71
aS'HSTNng'
p72
aS'IPLSng'
p73
asg25
g17
sg27
I7
ssS'HSTNng'
p74
(dp75
g6
S'h_HSTNng'
p76
sg8
(dp77
g10
I7
sg11
I7
sg12
I2
sg13
I7
sg15
I1
sg16
I1
sg17
I7
sg18
I2
sg26
I1
sg19
I2
sg20
I2
ssg21
(lp78
S'LOSAng'
p79
aS'ATLAng'
p80
aS'KSCYng'
p81
asg25
g14
sg27
I8
ssS'IPLSng'
p82
(dp83
g6
S'h_IPLSng'
p84
sg8
(dp85
g10
I11
sg11
I7
sg12
I2
sg14
I7
sg15
I7
sg16
I7
sg17
I7
sg18
I11
sg26
I7
sg19
I11
sg20
I2
ssg21
(lp86
S'ATLAng'
p87
aS'CHINng'
p88
aS'KSCYng'
p89
asg25
g13
sg27
I9
ssS'DNVRng'
p90
(dp91
g6
S'h_DNVRng'
p92
sg8
(dp93
g10
I7
sg12
I7
sg13
I7
sg14
I7
sg15
I5
sg16
I4
sg17
I7
sg18
I7
sg26
I5
sg19
I7
sg20
I7
ssg21
(lp94
S'STTLng'
p95
aS'SNVAng'
p96
aS'KSCYng'
p97
asg25
g11
sg27
I10
ssS'CHINng'
p98
(dp99
g6
S'h_CHINng'
p100
sg8
(dp101
g11
I9
sg12
I9
sg13
I9
sg14
I9
sg15
I9
sg16
I9
sg17
I9
sg18
I6
sg26
I9
sg19
I6
sg20
I9
ssg21
(lp102
S'NYCMng'
p103
aS'IPLSng'
p104
asg25
g10
sg27
I11
ssS'ATLA-M5'
p105
(dp106
g6
S'h_ATLA-M5'
p107
sg8
(dp108
g10
I2
sg11
I2
sg13
I2
sg14
I2
sg15
I2
sg16
I2
sg17
I2
sg18
I2
sg26
I2
sg19
I2
sg20
I2
ssg21
(lp109
S'ATLAng'
p110
asg25
g12
sg27
I12
ss.